(dp1
S'en_name'
p2
Ven
p3
sS'num_completed'
p4
I457
sS'name'
p5
Ven
p6
sS'plural_names'
p7
(lp8
Vsingular
p9
aVplural
p10
asS'source_trans'
p11
(dp12
sS'_is_enabled'
p13
I00
sS'author'
p14
c__builtin__
set
p15
((ltRp16
sS'enabled'
p17
(dp18
sS'num_total'
p19
I457
sS'nplurals'
p20
I2
s.